(lp0
(idoctest
DocTest
p1
(dp2
S'name'
p3
S'avgOfPopulation'
p4
sS'docstring'
p5
S'\n# Who used the average amount of water among the entire population last month?\n- In this problem, you will compute the amount of water usage of a person closest to the average of the entire population, given in a dictionary.\n'
p6
sS'filename'
p7
S'./labs/avgOfPopulation\\avgOfPopulation.py'
p8
sS'lineno'
p9
I0
sS'examples'
p10
(lp11
sba(idoctest
DocTest
p12
(dp13
g3
S'avgOfPopulation.avgOfPopulation'
p14
sg5
S'\n    Who used the average amount of water among the entire population last month?\n\n    Find the average that is the closest to that of the entire population, usage, given in a dictionary\n\n    For example, in a population of 4 people {"TOM": 35, "SALLY": 27, "PHILIP": 28, "GIGI": 42}, the average water usage is 33 and therefore, the function should return TOM\'s 35, which is the closest to 33.\n\n    If there is a tie, return the average of them; i.e., TOM and SALLY are both equally close to the average of the population, 22, in {"TOM": 21, "SALLY": 23, "PHILIP": 28, "GIGI": 16}, so instead of returning either of the two values (21 or 23) return its average, 22.\n    ------\n    >>> print avgOfPopulation({"TOM": 35, "SALLY": 27, "PHILIP": 28, "GIGI": 42})\n    35\n    >>> print avgOfPopulation({"TOM": 21, "SALLY": 23, "PHILIP": 28, "GIGI": 16})\n    22\n    >>> print avgOfPopulation({"TOM": 0, "SALLY": 23, "PHILIP": 28, "GIGI": 16, "ANGELA": 13, "PAUL": 33, "GAUDI": 20, "KANDARP": 17, "BRADY": 39})\n    20\n    >>> print avgOfPopulation({"TOM": 15})\n    15\n    >>> print avgOfPopulation({"TOM": 15, "OSLO": 14})\n    14.5\n    '
p15
sg7
g8
sg9
I6
sg10
(lp16
(idoctest
Example
p17
(dp18
S'indent'
p19
I4
sS'exc_msg'
p20
NsS'source'
p21
S'print avgOfPopulation({"TOM": 35, "SALLY": 27, "PHILIP": 28, "GIGI": 42})\n'
p22
sg9
I9
sS'want'
p23
S'35\n'
p24
sS'options'
p25
(dp26
sba(idoctest
Example
p27
(dp28
g19
I4
sg20
Nsg21
S'print avgOfPopulation({"TOM": 21, "SALLY": 23, "PHILIP": 28, "GIGI": 16})\n'
p29
sg9
I11
sg23
S'22\n'
p30
sg25
(dp31
sba(idoctest
Example
p32
(dp33
g19
I4
sg20
Nsg21
S'print avgOfPopulation({"TOM": 0, "SALLY": 23, "PHILIP": 28, "GIGI": 16, "ANGELA": 13, "PAUL": 33, "GAUDI": 20, "KANDARP": 17, "BRADY": 39})\n'
p34
sg9
I13
sg23
S'20\n'
p35
sg25
(dp36
sba(idoctest
Example
p37
(dp38
g19
I4
sg20
Nsg21
S'print avgOfPopulation({"TOM": 15})\n'
p39
sg9
I15
sg23
S'15\n'
p40
sg25
(dp41
sba(idoctest
Example
p42
(dp43
g19
I4
sg20
Nsg21
S'print avgOfPopulation({"TOM": 15, "OSLO": 14})\n'
p44
sg9
I17
sg23
S'14.5\n'
p45
sg25
(dp46
sbasba.