(lp0
(idoctest
DocTest
p1
(dp2
S'name'
p3
S'diffSecondMinMax'
p4
sS'docstring'
p5
S'\n\n# Compupte the difference between the minimum and maximum values\n- In this problem, you will compute the difference between the minimum and maximum values of an array of numbers.\n\n'
p6
sS'filename'
p7
S'./labs/diffMeanMax\\diffSecondMinMax.py'
p8
sS'lineno'
p9
I0
sS'examples'
p10
(lp11
sba(idoctest
DocTest
p12
(dp13
g3
S'diffSecondMinMax.diffMinMax'
p14
sg5
S'\n    Difference between the minimum and maxmimum values\n\n    Find the difference bewteen the minimum and maximum values of the given array, nums\n\n    For example, the minimum value of [1,2,3] is 1, and the maximum value of [1,2,3] is 3, hence the difference between the two is 3 - 1 = 2.\n\n    Compute the difference such that its value is always positive, i.e. absolute difference.\n\n    Assume that the array contains at least two numbers.\n\n    ------\n    >>> print diffMinMax([1,3])\n    2\n    >>> print diffMinMax([1,3,2])\n    2\n    >>> print diffMinMax([7,3,1,5,6])\n    6\n    >>> print diffMinMax([7,3,1,6,7,8,9,1,3,3,3,2])\n    8\n    '
p15
sg7
g8
sg9
I8
sg10
(lp16
(idoctest
Example
p17
(dp18
S'indent'
p19
I4
sS'exc_msg'
p20
NsS'source'
p21
S'print diffMinMax([1,3])\n'
p22
sg9
I12
sS'want'
p23
S'2\n'
p24
sS'options'
p25
(dp26
sba(idoctest
Example
p27
(dp28
g19
I4
sg20
Nsg21
S'print diffMinMax([1,3,2])\n'
p29
sg9
I14
sg23
S'2\n'
p30
sg25
(dp31
sba(idoctest
Example
p32
(dp33
g19
I4
sg20
Nsg21
S'print diffMinMax([7,3,1,5,6])\n'
p34
sg9
I16
sg23
S'6\n'
p35
sg25
(dp36
sba(idoctest
Example
p37
(dp38
g19
I4
sg20
Nsg21
S'print diffMinMax([7,3,1,6,7,8,9,1,3,3,3,2])\n'
p39
sg9
I18
sg23
S'8\n'
p40
sg25
(dp41
sbasba.