(lp0
(idoctest
DocTest
p1
(dp2
S'name'
p3
S'fibonacci2'
p4
sS'docstring'
p5
S'\n\n# Fibonacci Sequence\n\nGiven an index (starting from 0), create a function that returns the corresponding fibonacci sequence number.\n\n'
p6
sS'filename'
p7
S'./labs/fibonacci3\\fibonacci2.py'
p8
sS'lineno'
p9
I0
sS'examples'
p10
(lp11
sba(idoctest
DocTest
p12
(dp13
g3
S'fibonacci2.fibonacci'
p14
sg5
S'\n    Return the corresponding fibonacci sequence number to a given index.\n\n    For example,\n    - fibonacci(0) returns 1,\n    - fibonacci(1) returns 1,\n    - fibonacci(2) returns 2,\n    - fibonacci(3) returns 3,\n    - fibonacci(4) returns 5,\n    - ...\n    and so on.\n\n    ------\n\n    >>> print fibonacci(0)\n    1\n    >>> print fibonacci(1)\n    1\n    >>> print fibonacci(2)\n    2\n    >>> print fibonacci(3)\n    3\n    >>> print fibonacci(4)\n    5\n    >>> print fibonacci(5)\n    8\n    >>> print fibonacci(6)\n    13\n    >>> print fibonacci(7)\n    21\n    >>> print fibonacci(8)\n    34\n    >>> print fibonacci(9)\n    55\n    >>> print fibonacci(10)\n    89\n    '
p15
sg7
g8
sg9
I10
sg10
(lp16
(idoctest
Example
p17
(dp18
S'indent'
p19
I4
sS'exc_msg'
p20
NsS'source'
p21
S'print fibonacci(0)\n'
p22
sg9
I14
sS'want'
p23
S'1\n'
p24
sS'options'
p25
(dp26
sba(idoctest
Example
p27
(dp28
g19
I4
sg20
Nsg21
S'print fibonacci(1)\n'
p29
sg9
I16
sg23
S'1\n'
p30
sg25
(dp31
sba(idoctest
Example
p32
(dp33
g19
I4
sg20
Nsg21
S'print fibonacci(2)\n'
p34
sg9
I18
sg23
S'2\n'
p35
sg25
(dp36
sba(idoctest
Example
p37
(dp38
g19
I4
sg20
Nsg21
S'print fibonacci(3)\n'
p39
sg9
I20
sg23
S'3\n'
p40
sg25
(dp41
sba(idoctest
Example
p42
(dp43
g19
I4
sg20
Nsg21
S'print fibonacci(4)\n'
p44
sg9
I22
sg23
S'5\n'
p45
sg25
(dp46
sba(idoctest
Example
p47
(dp48
g19
I4
sg20
Nsg21
S'print fibonacci(5)\n'
p49
sg9
I24
sg23
S'8\n'
p50
sg25
(dp51
sba(idoctest
Example
p52
(dp53
g19
I4
sg20
Nsg21
S'print fibonacci(6)\n'
p54
sg9
I26
sg23
S'13\n'
p55
sg25
(dp56
sba(idoctest
Example
p57
(dp58
g19
I4
sg20
Nsg21
S'print fibonacci(7)\n'
p59
sg9
I28
sg23
S'21\n'
p60
sg25
(dp61
sba(idoctest
Example
p62
(dp63
g19
I4
sg20
Nsg21
S'print fibonacci(8)\n'
p64
sg9
I30
sg23
S'34\n'
p65
sg25
(dp66
sba(idoctest
Example
p67
(dp68
g19
I4
sg20
Nsg21
S'print fibonacci(9)\n'
p69
sg9
I32
sg23
S'55\n'
p70
sg25
(dp71
sba(idoctest
Example
p72
(dp73
g19
I4
sg20
Nsg21
S'print fibonacci(10)\n'
p74
sg9
I34
sg23
S'89\n'
p75
sg25
(dp76
sbasba.