(lp0
(idoctest
DocTest
p1
(dp2
S'name'
p3
S'meanMedianDiff'
p4
sS'docstring'
p5
S'\n# Compute the difference between mean and median of a given list of numbers\n'
p6
sS'filename'
p7
S'./labs/MeanMedianDiff\\meanMedianDiff.py'
p8
sS'lineno'
p9
I0
sS'examples'
p10
(lp11
sba(idoctest
DocTest
p12
(dp13
g3
S'meanMedianDiff.meanMedianDiff'
p14
sg5
S'\n    Mean, median value difference\n\n    - Find the difference bewteen mean and median values of the given list, nums\n\n    - For example, the mean of [1,2,3] is 2, and the median of [1,2,3] is also 2, hence the difference between the two is 2 - 2 = 0.\n\n    - Compute the difference such that its value is always positive, i.e. absolute difference.\n\n    ------\n    >>> print meanMedianDiff([1])\n    0\n    >>> print meanMedianDiff([1,2,3])\n    0\n    >>> print meanMedianDiff([1,3,5,5,6])\n    1\n    >>> print meanMedianDiff([7,3,1,2,2,5,4,6,7,8,9,1,3,3,3,2])\n    1.125\n    '
p15
sg7
g8
sg9
I5
sg10
(lp16
(idoctest
Example
p17
(dp18
S'indent'
p19
I4
sS'exc_msg'
p20
NsS'source'
p21
S'print meanMedianDiff([1])\n'
p22
sg9
I10
sS'want'
p23
S'0\n'
p24
sS'options'
p25
(dp26
sba(idoctest
Example
p27
(dp28
g19
I4
sg20
Nsg21
S'print meanMedianDiff([1,2,3])\n'
p29
sg9
I12
sg23
S'0\n'
p30
sg25
(dp31
sba(idoctest
Example
p32
(dp33
g19
I4
sg20
Nsg21
S'print meanMedianDiff([1,3,5,5,6])\n'
p34
sg9
I14
sg23
S'1\n'
p35
sg25
(dp36
sba(idoctest
Example
p37
(dp38
g19
I4
sg20
Nsg21
S'print meanMedianDiff([7,3,1,2,2,5,4,6,7,8,9,1,3,3,3,2])\n'
p39
sg9
I16
sg23
S'1.125\n'
p40
sg25
(dp41
sbasba.