(lp0
(idoctest
DocTest
p1
(dp2
S'name'
p3
S'meanOfSmallest25P'
p4
sS'docstring'
p5
S'\n\n# Compute the mean of the smallest 25% values\n- In this problem, you will compute the mean of the smallest 25% values in an array of numbers.\n'
p6
sS'filename'
p7
S'./labs/meanOfSmallest25P\\meanOfSmallest25P.py'
p8
sS'lineno'
p9
I0
sS'examples'
p10
(lp11
sba(idoctest
DocTest
p12
(dp13
g3
S'meanOfSmallest25P.meanOfSmallest25P'
p14
sg5
S'\n    The mean of the smallest 25% values\n\n    Find the mean of the smallest 25% values in the given array, nums\n\n    For example, the smallest 25% values of [1,2,3,4] is 1, and therefore, the mean is also 1.\n\n    If there are identical values, you need to count them separately; i.e., the smallest 25% values of [1,1,1,3,5,7,8,9] consists of [1, 1]. Hence, its mean is 1.\n\n    If the length of nums is not divisible by 4, use the 25% of the length value that is closest to the 25% of the length of the array but not greater.\n\n    Ex. The 25% length of [1,1,3,4,5] is 1 since 25% of 5 is 1.25 and the closest integer that is not greater than 1.25 is 1. \n\n    Assume that the array contains at least four numbers.\n\n    ------\n    >>> print meanOfSmallest25P([1,1,1,1])\n    1\n    >>> print meanOfSmallest25P([1,1,3,2])\n    1\n    >>> print meanOfSmallest25P([3,1,2,1])\n    1\n    >>> print meanOfSmallest25P([1,3,3,2,1])\n    1\n    >>> print meanOfSmallest25P([7,1,2,3,4,5,6,8,9])\n    1.5\n    >>> print meanOfSmallest25P([6,-3,-1,3,-2,5,7,9,-5])\n    -4\n    '
p15
sg7
g8
sg9
I7
sg10
(lp16
(idoctest
Example
p17
(dp18
S'indent'
p19
I4
sS'exc_msg'
p20
NsS'source'
p21
S'print meanOfSmallest25P([1,1,1,1])\n'
p22
sg9
I16
sS'want'
p23
S'1\n'
p24
sS'options'
p25
(dp26
sba(idoctest
Example
p27
(dp28
g19
I4
sg20
Nsg21
S'print meanOfSmallest25P([1,1,3,2])\n'
p29
sg9
I18
sg23
S'1\n'
p30
sg25
(dp31
sba(idoctest
Example
p32
(dp33
g19
I4
sg20
Nsg21
S'print meanOfSmallest25P([3,1,2,1])\n'
p34
sg9
I20
sg23
S'1\n'
p35
sg25
(dp36
sba(idoctest
Example
p37
(dp38
g19
I4
sg20
Nsg21
S'print meanOfSmallest25P([1,3,3,2,1])\n'
p39
sg9
I22
sg23
S'1\n'
p40
sg25
(dp41
sba(idoctest
Example
p42
(dp43
g19
I4
sg20
Nsg21
S'print meanOfSmallest25P([7,1,2,3,4,5,6,8,9])\n'
p44
sg9
I24
sg23
S'1.5\n'
p45
sg25
(dp46
sba(idoctest
Example
p47
(dp48
g19
I4
sg20
Nsg21
S'print meanOfSmallest25P([6,-3,-1,3,-2,5,7,9,-5])\n'
p49
sg9
I26
sg23
S'-4\n'
p50
sg25
(dp51
sbasba.