(lp0
(idoctest
DocTest
p1
(dp2
S'name'
p3
S'median'
p4
sS'docstring'
p5
S'\n# Compute the median of a given list of numbers\n'
p6
sS'filename'
p7
S'./labs/median2\\median.py'
p8
sS'lineno'
p9
I0
sS'examples'
p10
(lp11
sba(idoctest
DocTest
p12
(dp13
g3
S'median.median'
p14
sg5
S'\n    The median\n\n    - Find the median value of the given list, nums\n\n    - For example, the median of [1,2] is 1.5, and the median of [1,2,3,4,5] is 3.\n    ------\n    >>> print median([1])\n    1\n    >>> print median([1,2])\n    1.5\n    >>> print median([1,3,5,5,6])\n    5\n    >>> print median([3,5,4,6,1,7,9,2])\n    4.5\n    >>> print median([7,3,1,2,2,5,4,6,7,8,9,1,3,3,3,2])\n    3\n    '
p15
sg7
g8
sg9
I5
sg10
(lp16
(idoctest
Example
p17
(dp18
S'indent'
p19
I4
sS'exc_msg'
p20
NsS'source'
p21
S'print median([1])\n'
p22
sg9
I7
sS'want'
p23
S'1\n'
p24
sS'options'
p25
(dp26
sba(idoctest
Example
p27
(dp28
g19
I4
sg20
Nsg21
S'print median([1,2])\n'
p29
sg9
I9
sg23
S'1.5\n'
p30
sg25
(dp31
sba(idoctest
Example
p32
(dp33
g19
I4
sg20
Nsg21
S'print median([1,3,5,5,6])\n'
p34
sg9
I11
sg23
S'5\n'
p35
sg25
(dp36
sba(idoctest
Example
p37
(dp38
g19
I4
sg20
Nsg21
S'print median([3,5,4,6,1,7,9,2])\n'
p39
sg9
I13
sg23
S'4.5\n'
p40
sg25
(dp41
sba(idoctest
Example
p42
(dp43
g19
I4
sg20
Nsg21
S'print median([7,3,1,2,2,5,4,6,7,8,9,1,3,3,3,2])\n'
p44
sg9
I15
sg23
S'3\n'
p45
sg25
(dp46
sbasba.