(lp0
(idoctest
DocTest
p1
(dp2
S'name'
p3
S'squareroot'
p4
sS'docstring'
p5
S'\n\n# Squareroot of a Number\n\nFind the squareroot of a given number rounded down to the nearest integer, without using the sqrt function.\nFor example, squareroot of a number between [9, 15] should return 3, and [16, 24] should be 4.\n\n- The straightforward way to solve this problem has the complexity of O(N), which is pretty inefficient.\n\n'
p6
sS'filename'
p7
S'./labs/sqrt\\squareroot.py'
p8
sS'lineno'
p9
I0
sS'examples'
p10
(lp11
sba(idoctest
DocTest
p12
(dp13
g3
S'squareroot.sqrt'
p14
sg5
S'\n    Find the squareroot of a given number rounded down to the nearest integer, without using the sqrt function.\n\n    ------\n\n    >>> print sqrt(10)\n    3\n    >>> print sqrt(14)\n    3\n    >>> print sqrt(27)\n    5\n    >>> print sqrt(1)\n    1\n    >>> print sqrt(100)\n    10\n    >>> print sqrt(1000)\n    31\n    '
p15
sg7
g8
sg9
I13
sg10
(lp16
(idoctest
Example
p17
(dp18
S'indent'
p19
I4
sS'exc_msg'
p20
NsS'source'
p21
S'print sqrt(10)\n'
p22
sg9
I5
sS'want'
p23
S'3\n'
p24
sS'options'
p25
(dp26
sba(idoctest
Example
p27
(dp28
g19
I4
sg20
Nsg21
S'print sqrt(14)\n'
p29
sg9
I7
sg23
S'3\n'
p30
sg25
(dp31
sba(idoctest
Example
p32
(dp33
g19
I4
sg20
Nsg21
S'print sqrt(27)\n'
p34
sg9
I9
sg23
S'5\n'
p35
sg25
(dp36
sba(idoctest
Example
p37
(dp38
g19
I4
sg20
Nsg21
S'print sqrt(1)\n'
p39
sg9
I11
sg23
S'1\n'
p40
sg25
(dp41
sba(idoctest
Example
p42
(dp43
g19
I4
sg20
Nsg21
S'print sqrt(100)\n'
p44
sg9
I13
sg23
S'10\n'
p45
sg25
(dp46
sba(idoctest
Example
p47
(dp48
g19
I4
sg20
Nsg21
S'print sqrt(1000)\n'
p49
sg9
I15
sg23
S'31\n'
p50
sg25
(dp51
sbasba.